; Function Attrs: mustprogress nounwind uwtable
define dso_local void @_ZN4llvm15CodeGenCoverage5resetEv(ptr noundef nonnull align 8 dereferenceable(72) %0) local_unnamed_addr #0 align 2 {
  %2 = getelementptr inbounds nuw i8, ptr %0, i64 64
  %3 = load i32, ptr %2, align 8
  %4 = and i32 %3, 63
  %.not.i.i = icmp eq i32 %4, 0
  br i1 %.not.i.i, label %_ZN4llvm9BitVector15set_unused_bitsEb.exit.i, label %5

5:                                                ; preds = %1
  %6 = zext nneg i32 %4 to i64
  %7 = shl nsw i64 -1, %6
  %8 = xor i64 %7, -1
  %9 = load ptr, ptr %0, align 8
  %10 = tail call noundef i64 @_ZNK4llvm15SmallVectorBaseIjE4sizeEv(ptr noundef nonnull align 8 dereferenceable(68) %0) #17
  %11 = getelementptr inbounds i64, ptr %9, i64 %10
  %12 = getelementptr inbounds i8, ptr %11, i64 -8
  %13 = load i64, ptr %12, align 8
  %14 = and i64 %13, %8
  store i64 %14, ptr %12, align 8
  br label %_ZN4llvm9BitVector15set_unused_bitsEb.exit.i

_ZN4llvm9BitVector15set_unused_bitsEb.exit.i:     ; preds = %5, %1
  store i32 0, ptr %2, align 8
  tail call void @_ZN4llvm15SmallVectorImplImE6resizeEmm(ptr noundef nonnull align 8 dereferenceable(68) %0, i64 noundef 0, i64 noundef 0)
  %15 = load i32, ptr %2, align 8
  %16 = and i32 %15, 63
  %.not.i.i.i = icmp eq i32 %16, 0
  br i1 %.not.i.i.i, label %_ZN4llvm9BitVector6resizeEjb.exit, label %17

17:                                               ; preds = %_ZN4llvm9BitVector15set_unused_bitsEb.exit.i
  %18 = zext nneg i32 %16 to i64
  %19 = shl nsw i64 -1, %18
  %20 = xor i64 %19, -1
  %21 = load ptr, ptr %0, align 8
  %22 = tail call noundef i64 @_ZNK4llvm15SmallVectorBaseIjE4sizeEv(ptr noundef nonnull align 8 dereferenceable(68) %0) #17
  %23 = getelementptr inbounds i64, ptr %21, i64 %22
  %24 = getelementptr inbounds i8, ptr %23, i64 -8
  %25 = load i64, ptr %24, align 8
  %26 = and i64 %25, %20
  store i64 %26, ptr %24, align 8
  br label %_ZN4llvm9BitVector6resizeEjb.exit

_ZN4llvm9BitVector6resizeEjb.exit:                ; preds = %_ZN4llvm9BitVector15set_unused_bitsEb.exit.i, %17
  ret void
}